target datalayout = "e-m:e-p270:32:32-p271:32:32-p272:64:64-i64:64-i128:128-f80:128-n8:16:32:64-S128"
target triple = "x86_64-pc-linux-gnu"

%struct.curl_trc_feat = type { ptr, i32 }
%struct.Curl_easy = type { i32, i64, i64, ptr, %struct.Curl_llist_node, %struct.Curl_llist_node, i32, i32, %struct.Curl_message, %struct.easy_pollset, %struct.Names, ptr, ptr, ptr, ptr, %struct.SingleRequest, %struct.UserDefined, ptr, ptr, ptr, %struct.Progress, %struct.UrlState, ptr, %struct.PureInfo, %struct.curl_tlssessioninfo }
%struct.Curl_llist_node = type { ptr, ptr, ptr, ptr }
%struct.Curl_message = type { %struct.Curl_llist_node, %struct.CURLMsg }
%struct.CURLMsg = type { i32, ptr, %union.anon }
%union.anon = type { ptr }
%struct.easy_pollset = type { [5 x i32], i32, [5 x i8] }
%struct.Names = type { ptr, i32 }
%struct.SingleRequest = type <{ i64, i64, i64, i64, %struct.curltime, i32, i32, i32, i32, i64, i32, i32, i8, i8, [2 x i8], i32, ptr, ptr, %struct.bufq, i64, i64, ptr, ptr, %union.anon.0, ptr, i8, i32, [3 x i8] }>
%struct.curltime = type { i64, i32 }
%struct.bufq = type { ptr, ptr, ptr, ptr, i64, i64, i64, i32 }
%union.anon.0 = type { ptr }
%struct.UserDefined = type <{ ptr, ptr, ptr, ptr, ptr, ptr, i64, i64, i64, ptr, ptr, i64, ptr, ptr, ptr, ptr, ptr, ptr, ptr, ptr, ptr, ptr, ptr, ptr, ptr, ptr, ptr, ptr, ptr, ptr, ptr, ptr, ptr, ptr, ptr, i64, i64, i64, i64, i64, i64, i64, i64, i64, ptr, ptr, %struct.curl_mimepart, ptr, ptr, ptr, i64, %struct.ssl_config_data, %struct.ssl_config_data, ptr, i16, i8, i8, %struct.ssl_general_config, i32, i32, i32, [4 x i8], ptr, ptr, i64, i32, i8, i8, i8, i8, ptr, ptr, ptr, i32, [4 x i8], [74 x ptr], [8 x ptr], i32, i32, i32, [4 x i8], ptr, i32, [4 x i8], ptr, ptr, ptr, ptr, ptr, i32, i32, i32, i32, i32, i32, i32, i32, i64, ptr, ptr, i64, ptr, i64, ptr, ptr, ptr, ptr, i32, i16, i16, i16, i8, i8, i8, i8, i8, i8, i8, i8, i64, [6 x i8] }>
%struct.curl_mimepart = type { ptr, ptr, i32, i32, ptr, ptr, ptr, ptr, ptr, ptr, ptr, ptr, ptr, ptr, ptr, i64, %struct.mime_state, ptr, %struct.mime_encoder_state, i64 }
%struct.mime_state = type { i32, ptr, i64 }
%struct.mime_encoder_state = type { i64, i64, i64, [256 x i8] }
%struct.ssl_config_data = type { %struct.ssl_primary_config, i64, ptr, ptr, ptr, ptr, ptr, ptr, ptr, i16 }
%struct.ssl_primary_config = type { ptr, ptr, ptr, ptr, ptr, ptr, ptr, ptr, ptr, ptr, ptr, ptr, ptr, ptr, i8, i32, i8, i8 }
%struct.ssl_general_config = type { i32 }
%struct.Progress = type { i64, %struct.pgrs_dir, %struct.pgrs_dir, i64, i64, i32, i32, i64, i64, i64, i64, i64, i64, i64, i64, i64, %struct.curltime, %struct.curltime, %struct.curltime, %struct.curltime, %struct.curltime, [6 x i64], [6 x %struct.curltime], i32, i8 }
%struct.pgrs_dir = type { i64, i64, i64, %struct.pgrs_measure }
%struct.pgrs_measure = type { %struct.curltime, i64 }
%struct.UrlState = type { %struct.curltime, i64, i64, %struct.dynbuf, ptr, i64, ptr, i32, i32, i32, ptr, i32, i64, i32, ptr, %struct.digestdata, %struct.digestdata, %struct.auth, %struct.auth, %struct.Curl_async, ptr, i8, %struct.curltime, %struct.Curl_tree, %struct.Curl_llist, [15 x %struct.time_node], ptr, ptr, i64, i64, i64, i64, [32 x i8], i64, ptr, ptr, ptr, %struct.urlpieces, ptr, ptr, ptr, ptr, ptr, i64, %struct.dynbuf, %struct.Curl_llist, [2 x %struct.curl_header], ptr, i32, ptr, ptr, %struct.store_netrc, %struct.dynamically_allocated_data, i8, i8, i8, i8, i32 }
%struct.digestdata = type { ptr, ptr, ptr, ptr, ptr, ptr, i32, i8, i8 }
%struct.auth = type { i64, i64, i64, i8 }
%struct.Curl_async = type { ptr, ptr, ptr, ptr, i32, i32, i8 }
%struct.Curl_tree = type { ptr, ptr, ptr, ptr, %struct.curltime, ptr }
%struct.time_node = type { %struct.Curl_llist_node, %struct.curltime, i32 }
%struct.urlpieces = type { ptr, ptr, ptr, ptr, ptr, ptr, ptr, ptr }
%struct.dynbuf = type { ptr, i64, i64, i64 }
%struct.Curl_llist = type { ptr, ptr, ptr, i64 }
%struct.curl_header = type { ptr, ptr, i64, i64, i32, ptr }
%struct.store_netrc = type { %struct.dynbuf, ptr, i8 }
%struct.dynamically_allocated_data = type { ptr, ptr, ptr, ptr, ptr, ptr, ptr, ptr, ptr, ptr, ptr, ptr, ptr, ptr }
%struct.PureInfo = type { i32, i32, i32, i64, i64, i64, i64, i64, i64, i64, ptr, ptr, i64, i32, %struct.ip_quadruple, i32, ptr, i32, %struct.curl_certinfo, i32, i8 }
%struct.ip_quadruple = type { [46 x i8], [46 x i8], i32, i32 }
%struct.curl_certinfo = type { i32, ptr }
%struct.curl_tlssessioninfo = type { i32, ptr }

@.str = private unnamed_addr constant [41 x i8] c"The requested document is not new enough\00", align 1
@.str.1 = private unnamed_addr constant [41 x i8] c"The requested document is not old enough\00", align 1

; Function Attrs: nounwind uwtable
define hidden zeroext i1 @Curl_meets_timecondition(ptr noundef %0, i64 noundef %1) #0 {
  %3 = alloca i1, align 1
  %4 = alloca ptr, align 8
  %5 = alloca i64, align 8
  store ptr %0, ptr %4, align 8, !tbaa !3
  store i64 %1, ptr %5, align 8, !tbaa !10
  %6 = load i64, ptr %5, align 8, !tbaa !10
  %7 = icmp eq i64 %6, 0
  br i1 %7, label %14, label %8

8:                                                ; preds = %2
  %9 = load ptr, ptr %4, align 8, !tbaa !3
  %10 = getelementptr inbounds nuw %struct.Curl_easy, ptr %9, i32 0, i32 16
  %11 = getelementptr inbounds nuw %struct.UserDefined, ptr %10, i32 0, i32 50
  %12 = load i64, ptr %11, align 8, !tbaa !86
  %13 = icmp eq i64 %12, 0
  br i1 %13, label %14, label %15

14:                                               ; preds = %8, %2
  store i1 true, ptr %3, align 1
  br label %113

15:                                               ; preds = %8
  %16 = load ptr, ptr %4, align 8, !tbaa !3
  %17 = getelementptr inbounds nuw %struct.Curl_easy, ptr %16, i32 0, i32 16
  %18 = getelementptr inbounds nuw %struct.UserDefined, ptr %17, i32 0, i32 115
  %19 = load i8, ptr %18, align 2, !tbaa !87
  %20 = zext i8 %19 to i32
  switch i32 %20, label %22 [
    i32 1, label %21
    i32 2, label %67
  ]

21:                                               ; preds = %15
  br label %22

22:                                               ; preds = %15, %21
  %23 = load i64, ptr %5, align 8, !tbaa !10
  %24 = load ptr, ptr %4, align 8, !tbaa !3
  %25 = getelementptr inbounds nuw %struct.Curl_easy, ptr %24, i32 0, i32 16
  %26 = getelementptr inbounds nuw %struct.UserDefined, ptr %25, i32 0, i32 50
  %27 = load i64, ptr %26, align 8, !tbaa !86
  %28 = icmp sle i64 %23, %27
  br i1 %28, label %29, label %66

29:                                               ; preds = %22
  br label %30

30:                                               ; preds = %29
  %31 = load ptr, ptr %4, align 8, !tbaa !3
  %32 = icmp ne ptr %31, null
  br i1 %32, label %33, label %58

33:                                               ; preds = %30
  %34 = load ptr, ptr %4, align 8, !tbaa !3
  %35 = getelementptr inbounds nuw %struct.Curl_easy, ptr %34, i32 0, i32 16
  %36 = getelementptr inbounds nuw %struct.UserDefined, ptr %35, i32 0, i32 119
  %37 = load i64, ptr %36, align 2
  %38 = lshr i64 %37, 31
  %39 = and i64 %38, 1
  %40 = trunc i64 %39 to i32
  %41 = icmp ne i32 %40, 0
  br i1 %41, label %42, label %58

42:                                               ; preds = %33
  %43 = load ptr, ptr %4, align 8, !tbaa !3
  %44 = getelementptr inbounds nuw %struct.Curl_easy, ptr %43, i32 0, i32 21
  %45 = getelementptr inbounds nuw %struct.UrlState, ptr %44, i32 0, i32 50
  %46 = load ptr, ptr %45, align 8, !tbaa !88
  %47 = icmp ne ptr %46, null
  br i1 %47, label %48, label %56

48:                                               ; preds = %42
  %49 = load ptr, ptr %4, align 8, !tbaa !3
  %50 = getelementptr inbounds nuw %struct.Curl_easy, ptr %49, i32 0, i32 21
  %51 = getelementptr inbounds nuw %struct.UrlState, ptr %50, i32 0, i32 50
  %52 = load ptr, ptr %51, align 8, !tbaa !88
  %53 = getelementptr inbounds nuw %struct.curl_trc_feat, ptr %52, i32 0, i32 1
  %54 = load i32, ptr %53, align 8, !tbaa !89
  %55 = icmp sge i32 %54, 1
  br i1 %55, label %56, label %58

56:                                               ; preds = %48, %42
  %57 = load ptr, ptr %4, align 8, !tbaa !3
  call void (ptr, ptr, ...) @Curl_infof(ptr noundef %57, ptr noundef @.str)
  br label %58

58:                                               ; preds = %56, %48, %33, %30
  br label %59

59:                                               ; preds = %58
  %60 = load ptr, ptr %4, align 8, !tbaa !3
  %61 = getelementptr inbounds nuw %struct.Curl_easy, ptr %60, i32 0, i32 23
  %62 = getelementptr inbounds nuw %struct.PureInfo, ptr %61, i32 0, i32 20
  %63 = load i8, ptr %62, align 4
  %64 = and i8 %63, -2
  %65 = or i8 %64, 1
  store i8 %65, ptr %62, align 4
  store i1 false, ptr %3, align 1
  br label %113

66:                                               ; preds = %22
  br label %112

67:                                               ; preds = %15
  %68 = load i64, ptr %5, align 8, !tbaa !10
  %69 = load ptr, ptr %4, align 8, !tbaa !3
  %70 = getelementptr inbounds nuw %struct.Curl_easy, ptr %69, i32 0, i32 16
  %71 = getelementptr inbounds nuw %struct.UserDefined, ptr %70, i32 0, i32 50
  %72 = load i64, ptr %71, align 8, !tbaa !86
  %73 = icmp sge i64 %68, %72
  br i1 %73, label %74, label %111

74:                                               ; preds = %67
  br label %75

75:                                               ; preds = %74
  %76 = load ptr, ptr %4, align 8, !tbaa !3
  %77 = icmp ne ptr %76, null
  br i1 %77, label %78, label %103

78:                                               ; preds = %75
  %79 = load ptr, ptr %4, align 8, !tbaa !3
  %80 = getelementptr inbounds nuw %struct.Curl_easy, ptr %79, i32 0, i32 16
  %81 = getelementptr inbounds nuw %struct.UserDefined, ptr %80, i32 0, i32 119
  %82 = load i64, ptr %81, align 2
  %83 = lshr i64 %82, 31
  %84 = and i64 %83, 1
  %85 = trunc i64 %84 to i32
  %86 = icmp ne i32 %85, 0
  br i1 %86, label %87, label %103

87:                                               ; preds = %78
  %88 = load ptr, ptr %4, align 8, !tbaa !3
  %89 = getelementptr inbounds nuw %struct.Curl_easy, ptr %88, i32 0, i32 21
  %90 = getelementptr inbounds nuw %struct.UrlState, ptr %89, i32 0, i32 50
  %91 = load ptr, ptr %90, align 8, !tbaa !88
  %92 = icmp ne ptr %91, null
  br i1 %92, label %93, label %101

93:                                               ; preds = %87
  %94 = load ptr, ptr %4, align 8, !tbaa !3
  %95 = getelementptr inbounds nuw %struct.Curl_easy, ptr %94, i32 0, i32 21
  %96 = getelementptr inbounds nuw %struct.UrlState, ptr %95, i32 0, i32 50
  %97 = load ptr, ptr %96, align 8, !tbaa !88
  %98 = getelementptr inbounds nuw %struct.curl_trc_feat, ptr %97, i32 0, i32 1
  %99 = load i32, ptr %98, align 8, !tbaa !89
  %100 = icmp sge i32 %99, 1
  br i1 %100, label %101, label %103

101:                                              ; preds = %93, %87
  %102 = load ptr, ptr %4, align 8, !tbaa !3
  call void (ptr, ptr, ...) @Curl_infof(ptr noundef %102, ptr noundef @.str.1)
  br label %103

103:                                              ; preds = %101, %93, %78, %75
  br label %104

104:                                              ; preds = %103
  %105 = load ptr, ptr %4, align 8, !tbaa !3
  %106 = getelementptr inbounds nuw %struct.Curl_easy, ptr %105, i32 0, i32 23
  %107 = getelementptr inbounds nuw %struct.PureInfo, ptr %106, i32 0, i32 20
  %108 = load i8, ptr %107, align 4
  %109 = and i8 %108, -2
  %110 = or i8 %109, 1
  store i8 %110, ptr %107, align 4
  store i1 false, ptr %3, align 1
  br label %113

111:                                              ; preds = %67
  br label %112

112:                                              ; preds = %111, %66
  store i1 true, ptr %3, align 1
  br label %113

113:                                              ; preds = %112, %104, %59, %14
  %114 = load i1, ptr %3, align 1
  ret i1 %114
}